target datalayout = "e-m:e-p270:32:32-p271:32:32-p272:64:64-i64:64-i128:128-f80:128-n8:16:32:64-S128"
target triple = "x86_64-pc-linux-gnu"

; Function Attrs: mustprogress uwtable
define noundef i64 @_ZN4File10FileLengthEv(ptr noundef nonnull align 8 dereferenceable(8256) %0) #1 align 2 {
  %2 = alloca ptr, align 8
  %3 = alloca i64, align 8
  %4 = alloca i64, align 8
  store ptr %0, ptr %2, align 8
  %5 = load ptr, ptr %2, align 8
  %6 = load ptr, ptr %5, align 8
  %7 = getelementptr inbounds ptr, ptr %6, i64 6
  %8 = load ptr, ptr %7, align 8
  %9 = call noundef i64 %8(ptr noundef nonnull align 8 dereferenceable(8256) %5)
  store i64 %9, ptr %3, align 8
  %10 = load ptr, ptr %5, align 8
  %11 = getelementptr inbounds ptr, ptr %10, i64 5
  %12 = load ptr, ptr %11, align 8
  call void %12(ptr noundef nonnull align 8 dereferenceable(8256) %5, i64 noundef 0, i32 noundef 2)
  %13 = load ptr, ptr %5, align 8
  %14 = getelementptr inbounds ptr, ptr %13, i64 6
  %15 = load ptr, ptr %14, align 8
  %16 = call noundef i64 %15(ptr noundef nonnull align 8 dereferenceable(8256) %5)
  store i64 %16, ptr %4, align 8
  %17 = load i64, ptr %3, align 8
  %18 = load ptr, ptr %5, align 8
  %19 = getelementptr inbounds ptr, ptr %18, i64 5
  %20 = load ptr, ptr %19, align 8
  call void %20(ptr noundef nonnull align 8 dereferenceable(8256) %5, i64 noundef %17, i32 noundef 0)
  %21 = load i64, ptr %4, align 8
  ret i64 %21
}